; Function Attrs: mustprogress nounwind uwtable
define internal noundef ptr @"_ZN4llvm12function_refIFPNS_5ValueERNS_13IRBuilderBaseES2_EE11callback_fnIZNS_24expandAtomicRMWToCmpXchgEPNS_13AtomicRMWInstENS0_IFvS4_S2_S2_S2_NS_5AlignENS_14AtomicOrderingEhRS2_SC_EEEE3$_0EES2_lS4_S2_"(i64 noundef %0, ptr noundef nonnull align 8 dereferenceable(128) %1, ptr noundef %2) #0 align 2 {
  %4 = inttoptr i64 %0 to ptr
  %.val = load ptr, ptr %4, align 8
  %.val.val = load ptr, ptr %.val, align 8
  %5 = getelementptr i8, ptr %.val.val, i64 -32
  %.val.val.val = load ptr, ptr %5, align 8
  %6 = getelementptr i8, ptr %.val.val, i64 2
  %.val.val.val2 = load i16, ptr %6, align 2
  %7 = lshr i16 %.val.val.val2, 4
  %8 = and i16 %7, 31
  %9 = zext nneg i16 %8 to i32
  %10 = tail call noundef ptr @_ZN4llvm19buildAtomicRMWValueENS_13AtomicRMWInst5BinOpERNS_13IRBuilderBaseEPNS_5ValueES5_(i32 noundef %9, ptr noundef nonnull align 8 dereferenceable(128) %1, ptr noundef %2, ptr noundef %.val.val.val) #16
  ret ptr %10
}